; Function Attrs: mustprogress uwtable
define noundef range(i32 -3, 1) i32 @_ZN32pxrInternal_v0_24__pxrReserved__21UsdImagingPrimAdapter17ProcessPrimChangeERKNS_7UsdPrimERKNS_7SdfPathERKSt6vectorINS_7TfTokenESaIS8_EE(ptr nocapture nonnull readnone align 8 %0, ptr nocapture nonnull readnone align 8 %1, ptr nocapture nonnull readnone align 4 %2, ptr nocapture noundef nonnull readonly align 8 dereferenceable(24) %3) unnamed_addr #0 align 2 {
  %5 = tail call noundef nonnull align 8 dereferenceable(1160) ptr @_ZN32pxrInternal_v0_24__pxrReserved__11TfSingletonINS_9SdfSchemaEE11GetInstanceEv()
  %6 = load ptr, ptr %3, align 8
  %7 = getelementptr inbounds nuw i8, ptr %3, i64 8
  %8 = load ptr, ptr %7, align 8
  %.not1112 = icmp eq ptr %6, %8
  br i1 %.not1112, label %._crit_edge, label %.lr.ph

.lr.ph:                                           ; preds = %4, %12
  %.sroa.08.013 = phi ptr [ %13, %12 ], [ %6, %4 ]
  %9 = tail call noundef ptr @_ZNK32pxrInternal_v0_24__pxrReserved__13SdfSchemaBase18GetFieldDefinitionERKNS_7TfTokenE(ptr noundef nonnull align 8 dereferenceable(1160) %5, ptr noundef nonnull align 8 dereferenceable(8) %.sroa.08.013)
  %.not = icmp eq ptr %9, null
  br i1 %.not, label %12, label %10

10:                                               ; preds = %.lr.ph
  %11 = tail call noundef zeroext i1 @_ZNK32pxrInternal_v0_24__pxrReserved__13SdfSchemaBase15FieldDefinition8IsPluginEv(ptr noundef nonnull align 8 dereferenceable(96) %9)
  br i1 %11, label %._crit_edge, label %12

12:                                               ; preds = %.lr.ph, %10
  %13 = getelementptr inbounds i8, ptr %.sroa.08.013, i64 8
  %.not11 = icmp eq ptr %13, %8
  br i1 %.not11, label %._crit_edge, label %.lr.ph

._crit_edge:                                      ; preds = %10, %12, %4
  %.0 = phi i32 [ 0, %4 ], [ 0, %12 ], [ -3, %10 ]
  ret i32 %.0
}